target datalayout = "e-m:e-p270:32:32-p271:32:32-p272:64:64-i64:64-i128:128-f80:128-n8:16:32:64-S128"
target triple = "x86_64-pc-linux-gnu"

%struct.xl_xact_origin = type { i64, i64 }
%struct.xl_xact_parsed_commit = type { i64, i32, i32, i32, i32, ptr, i32, ptr, i32, ptr, i32, ptr, i32, [200 x i8], i32, ptr, i32, ptr, i64, i64 }
%struct.xl_xact_commit = type { i64 }
%struct.xl_xact_xinfo = type { i32 }
%struct.xl_xact_dbinfo = type { i32, i32 }
%struct.xl_xact_subxacts = type { i32, [0 x i32] }
%struct.xl_xact_relfilelocators = type { i32, [0 x %struct.RelFileLocator] }
%struct.RelFileLocator = type { i32, i32, i32 }
%struct.xl_xact_stats_items = type { i32, [0 x %struct.xl_xact_stats_item] }
%struct.xl_xact_stats_item = type { i32, i32, i32, i32 }
%struct.xl_xact_invals = type { i32, [0 x %union.SharedInvalidationMessage] }
%union.SharedInvalidationMessage = type { %struct.SharedInvalSmgrMsg }
%struct.SharedInvalSmgrMsg = type { i8, i8, i16, %struct.RelFileLocator }
%struct.xl_xact_twophase = type { i32 }

; Function Attrs: nounwind uwtable
define dso_local void @ParseCommitRecord(i8 noundef zeroext %0, ptr noundef %1, ptr noundef %2) #0 {
  %4 = alloca i8, align 1
  %5 = alloca ptr, align 8
  %6 = alloca ptr, align 8
  %7 = alloca ptr, align 8
  %8 = alloca ptr, align 8
  %9 = alloca ptr, align 8
  %10 = alloca ptr, align 8
  %11 = alloca ptr, align 8
  %12 = alloca ptr, align 8
  %13 = alloca ptr, align 8
  %14 = alloca ptr, align 8
  %15 = alloca %struct.xl_xact_origin, align 8
  store i8 %0, ptr %4, align 1
  store ptr %1, ptr %5, align 8
  store ptr %2, ptr %6, align 8
  call void @llvm.lifetime.start.p0(i64 8, ptr %7) #7
  %16 = load ptr, ptr %5, align 8
  %17 = getelementptr inbounds nuw i8, ptr %16, i64 8
  store ptr %17, ptr %7, align 8
  %18 = load ptr, ptr %6, align 8
  call void @llvm.memset.p0.i64(ptr align 8 %18, i8 0, i64 328, i1 false)
  %19 = load ptr, ptr %6, align 8
  %20 = getelementptr inbounds nuw %struct.xl_xact_parsed_commit, ptr %19, i32 0, i32 1
  store i32 0, ptr %20, align 8
  %21 = load ptr, ptr %5, align 8
  %22 = getelementptr inbounds nuw %struct.xl_xact_commit, ptr %21, i32 0, i32 0
  %23 = load i64, ptr %22, align 8
  %24 = load ptr, ptr %6, align 8
  %25 = getelementptr inbounds nuw %struct.xl_xact_parsed_commit, ptr %24, i32 0, i32 0
  store i64 %23, ptr %25, align 8
  %26 = load i8, ptr %4, align 1
  %27 = zext i8 %26 to i32
  %28 = and i32 %27, 128
  %29 = icmp ne i32 %28, 0
  br i1 %29, label %30, label %39

30:                                               ; preds = %3
  call void @llvm.lifetime.start.p0(i64 8, ptr %8) #7
  %31 = load ptr, ptr %7, align 8
  store ptr %31, ptr %8, align 8
  %32 = load ptr, ptr %8, align 8
  %33 = getelementptr inbounds nuw %struct.xl_xact_xinfo, ptr %32, i32 0, i32 0
  %34 = load i32, ptr %33, align 4
  %35 = load ptr, ptr %6, align 8
  %36 = getelementptr inbounds nuw %struct.xl_xact_parsed_commit, ptr %35, i32 0, i32 1
  store i32 %34, ptr %36, align 8
  %37 = load ptr, ptr %7, align 8
  %38 = getelementptr inbounds nuw i8, ptr %37, i64 4
  store ptr %38, ptr %7, align 8
  call void @llvm.lifetime.end.p0(i64 8, ptr %8) #7
  br label %39

39:                                               ; preds = %30, %3
  %40 = load ptr, ptr %6, align 8
  %41 = getelementptr inbounds nuw %struct.xl_xact_parsed_commit, ptr %40, i32 0, i32 1
  %42 = load i32, ptr %41, align 8
  %43 = and i32 %42, 1
  %44 = icmp ne i32 %43, 0
  br i1 %44, label %45, label %59

45:                                               ; preds = %39
  call void @llvm.lifetime.start.p0(i64 8, ptr %9) #7
  %46 = load ptr, ptr %7, align 8
  store ptr %46, ptr %9, align 8
  %47 = load ptr, ptr %9, align 8
  %48 = getelementptr inbounds nuw %struct.xl_xact_dbinfo, ptr %47, i32 0, i32 0
  %49 = load i32, ptr %48, align 4
  %50 = load ptr, ptr %6, align 8
  %51 = getelementptr inbounds nuw %struct.xl_xact_parsed_commit, ptr %50, i32 0, i32 2
  store i32 %49, ptr %51, align 4
  %52 = load ptr, ptr %9, align 8
  %53 = getelementptr inbounds nuw %struct.xl_xact_dbinfo, ptr %52, i32 0, i32 1
  %54 = load i32, ptr %53, align 4
  %55 = load ptr, ptr %6, align 8
  %56 = getelementptr inbounds nuw %struct.xl_xact_parsed_commit, ptr %55, i32 0, i32 3
  store i32 %54, ptr %56, align 8
  %57 = load ptr, ptr %7, align 8
  %58 = getelementptr inbounds nuw i8, ptr %57, i64 8
  store ptr %58, ptr %7, align 8
  call void @llvm.lifetime.end.p0(i64 8, ptr %9) #7
  br label %59

59:                                               ; preds = %45, %39
  %60 = load ptr, ptr %6, align 8
  %61 = getelementptr inbounds nuw %struct.xl_xact_parsed_commit, ptr %60, i32 0, i32 1
  %62 = load i32, ptr %61, align 8
  %63 = and i32 %62, 2
  %64 = icmp ne i32 %63, 0
  br i1 %64, label %65, label %86

65:                                               ; preds = %59
  call void @llvm.lifetime.start.p0(i64 8, ptr %10) #7
  %66 = load ptr, ptr %7, align 8
  store ptr %66, ptr %10, align 8
  %67 = load ptr, ptr %10, align 8
  %68 = getelementptr inbounds nuw %struct.xl_xact_subxacts, ptr %67, i32 0, i32 0
  %69 = load i32, ptr %68, align 4
  %70 = load ptr, ptr %6, align 8
  %71 = getelementptr inbounds nuw %struct.xl_xact_parsed_commit, ptr %70, i32 0, i32 4
  store i32 %69, ptr %71, align 4
  %72 = load ptr, ptr %10, align 8
  %73 = getelementptr inbounds nuw %struct.xl_xact_subxacts, ptr %72, i32 0, i32 1
  %74 = getelementptr inbounds [0 x i32], ptr %73, i64 0, i64 0
  %75 = load ptr, ptr %6, align 8
  %76 = getelementptr inbounds nuw %struct.xl_xact_parsed_commit, ptr %75, i32 0, i32 5
  store ptr %74, ptr %76, align 8
  %77 = load ptr, ptr %7, align 8
  %78 = getelementptr inbounds nuw i8, ptr %77, i64 4
  store ptr %78, ptr %7, align 8
  %79 = load ptr, ptr %6, align 8
  %80 = getelementptr inbounds nuw %struct.xl_xact_parsed_commit, ptr %79, i32 0, i32 4
  %81 = load i32, ptr %80, align 4
  %82 = sext i32 %81 to i64
  %83 = mul i64 %82, 4
  %84 = load ptr, ptr %7, align 8
  %85 = getelementptr inbounds nuw i8, ptr %84, i64 %83
  store ptr %85, ptr %7, align 8
  call void @llvm.lifetime.end.p0(i64 8, ptr %10) #7
  br label %86

86:                                               ; preds = %65, %59
  %87 = load ptr, ptr %6, align 8
  %88 = getelementptr inbounds nuw %struct.xl_xact_parsed_commit, ptr %87, i32 0, i32 1
  %89 = load i32, ptr %88, align 8
  %90 = and i32 %89, 4
  %91 = icmp ne i32 %90, 0
  br i1 %91, label %92, label %113

92:                                               ; preds = %86
  call void @llvm.lifetime.start.p0(i64 8, ptr %11) #7
  %93 = load ptr, ptr %7, align 8
  store ptr %93, ptr %11, align 8
  %94 = load ptr, ptr %11, align 8
  %95 = getelementptr inbounds nuw %struct.xl_xact_relfilelocators, ptr %94, i32 0, i32 0
  %96 = load i32, ptr %95, align 4
  %97 = load ptr, ptr %6, align 8
  %98 = getelementptr inbounds nuw %struct.xl_xact_parsed_commit, ptr %97, i32 0, i32 6
  store i32 %96, ptr %98, align 8
  %99 = load ptr, ptr %11, align 8
  %100 = getelementptr inbounds nuw %struct.xl_xact_relfilelocators, ptr %99, i32 0, i32 1
  %101 = getelementptr inbounds [0 x %struct.RelFileLocator], ptr %100, i64 0, i64 0
  %102 = load ptr, ptr %6, align 8
  %103 = getelementptr inbounds nuw %struct.xl_xact_parsed_commit, ptr %102, i32 0, i32 7
  store ptr %101, ptr %103, align 8
  %104 = load ptr, ptr %7, align 8
  %105 = getelementptr inbounds nuw i8, ptr %104, i64 4
  store ptr %105, ptr %7, align 8
  %106 = load ptr, ptr %11, align 8
  %107 = getelementptr inbounds nuw %struct.xl_xact_relfilelocators, ptr %106, i32 0, i32 0
  %108 = load i32, ptr %107, align 4
  %109 = sext i32 %108 to i64
  %110 = mul i64 %109, 12
  %111 = load ptr, ptr %7, align 8
  %112 = getelementptr inbounds nuw i8, ptr %111, i64 %110
  store ptr %112, ptr %7, align 8
  call void @llvm.lifetime.end.p0(i64 8, ptr %11) #7
  br label %113

113:                                              ; preds = %92, %86
  %114 = load ptr, ptr %6, align 8
  %115 = getelementptr inbounds nuw %struct.xl_xact_parsed_commit, ptr %114, i32 0, i32 1
  %116 = load i32, ptr %115, align 8
  %117 = and i32 %116, 256
  %118 = icmp ne i32 %117, 0
  br i1 %118, label %119, label %140

119:                                              ; preds = %113
  call void @llvm.lifetime.start.p0(i64 8, ptr %12) #7
  %120 = load ptr, ptr %7, align 8
  store ptr %120, ptr %12, align 8
  %121 = load ptr, ptr %12, align 8
  %122 = getelementptr inbounds nuw %struct.xl_xact_stats_items, ptr %121, i32 0, i32 0
  %123 = load i32, ptr %122, align 4
  %124 = load ptr, ptr %6, align 8
  %125 = getelementptr inbounds nuw %struct.xl_xact_parsed_commit, ptr %124, i32 0, i32 8
  store i32 %123, ptr %125, align 8
  %126 = load ptr, ptr %12, align 8
  %127 = getelementptr inbounds nuw %struct.xl_xact_stats_items, ptr %126, i32 0, i32 1
  %128 = getelementptr inbounds [0 x %struct.xl_xact_stats_item], ptr %127, i64 0, i64 0
  %129 = load ptr, ptr %6, align 8
  %130 = getelementptr inbounds nuw %struct.xl_xact_parsed_commit, ptr %129, i32 0, i32 9
  store ptr %128, ptr %130, align 8
  %131 = load ptr, ptr %7, align 8
  %132 = getelementptr inbounds nuw i8, ptr %131, i64 4
  store ptr %132, ptr %7, align 8
  %133 = load ptr, ptr %12, align 8
  %134 = getelementptr inbounds nuw %struct.xl_xact_stats_items, ptr %133, i32 0, i32 0
  %135 = load i32, ptr %134, align 4
  %136 = sext i32 %135 to i64
  %137 = mul i64 %136, 16
  %138 = load ptr, ptr %7, align 8
  %139 = getelementptr inbounds nuw i8, ptr %138, i64 %137
  store ptr %139, ptr %7, align 8
  call void @llvm.lifetime.end.p0(i64 8, ptr %12) #7
  br label %140

140:                                              ; preds = %119, %113
  %141 = load ptr, ptr %6, align 8
  %142 = getelementptr inbounds nuw %struct.xl_xact_parsed_commit, ptr %141, i32 0, i32 1
  %143 = load i32, ptr %142, align 8
  %144 = and i32 %143, 8
  %145 = icmp ne i32 %144, 0
  br i1 %145, label %146, label %167

146:                                              ; preds = %140
  call void @llvm.lifetime.start.p0(i64 8, ptr %13) #7
  %147 = load ptr, ptr %7, align 8
  store ptr %147, ptr %13, align 8
  %148 = load ptr, ptr %13, align 8
  %149 = getelementptr inbounds nuw %struct.xl_xact_invals, ptr %148, i32 0, i32 0
  %150 = load i32, ptr %149, align 4
  %151 = load ptr, ptr %6, align 8
  %152 = getelementptr inbounds nuw %struct.xl_xact_parsed_commit, ptr %151, i32 0, i32 10
  store i32 %150, ptr %152, align 8
  %153 = load ptr, ptr %13, align 8
  %154 = getelementptr inbounds nuw %struct.xl_xact_invals, ptr %153, i32 0, i32 1
  %155 = getelementptr inbounds [0 x %union.SharedInvalidationMessage], ptr %154, i64 0, i64 0
  %156 = load ptr, ptr %6, align 8
  %157 = getelementptr inbounds nuw %struct.xl_xact_parsed_commit, ptr %156, i32 0, i32 11
  store ptr %155, ptr %157, align 8
  %158 = load ptr, ptr %7, align 8
  %159 = getelementptr inbounds nuw i8, ptr %158, i64 4
  store ptr %159, ptr %7, align 8
  %160 = load ptr, ptr %13, align 8
  %161 = getelementptr inbounds nuw %struct.xl_xact_invals, ptr %160, i32 0, i32 0
  %162 = load i32, ptr %161, align 4
  %163 = sext i32 %162 to i64
  %164 = mul i64 %163, 16
  %165 = load ptr, ptr %7, align 8
  %166 = getelementptr inbounds nuw i8, ptr %165, i64 %164
  store ptr %166, ptr %7, align 8
  call void @llvm.lifetime.end.p0(i64 8, ptr %13) #7
  br label %167

167:                                              ; preds = %146, %140
  %168 = load ptr, ptr %6, align 8
  %169 = getelementptr inbounds nuw %struct.xl_xact_parsed_commit, ptr %168, i32 0, i32 1
  %170 = load i32, ptr %169, align 8
  %171 = and i32 %170, 16
  %172 = icmp ne i32 %171, 0
  br i1 %172, label %173, label %199

173:                                              ; preds = %167
  call void @llvm.lifetime.start.p0(i64 8, ptr %14) #7
  %174 = load ptr, ptr %7, align 8
  store ptr %174, ptr %14, align 8
  %175 = load ptr, ptr %14, align 8
  %176 = getelementptr inbounds nuw %struct.xl_xact_twophase, ptr %175, i32 0, i32 0
  %177 = load i32, ptr %176, align 4
  %178 = load ptr, ptr %6, align 8
  %179 = getelementptr inbounds nuw %struct.xl_xact_parsed_commit, ptr %178, i32 0, i32 12
  store i32 %177, ptr %179, align 8
  %180 = load ptr, ptr %7, align 8
  %181 = getelementptr inbounds nuw i8, ptr %180, i64 4
  store ptr %181, ptr %7, align 8
  %182 = load ptr, ptr %6, align 8
  %183 = getelementptr inbounds nuw %struct.xl_xact_parsed_commit, ptr %182, i32 0, i32 1
  %184 = load i32, ptr %183, align 8
  %185 = and i32 %184, 128
  %186 = icmp ne i32 %185, 0
  br i1 %186, label %187, label %198

187:                                              ; preds = %173
  %188 = load ptr, ptr %6, align 8
  %189 = getelementptr inbounds nuw %struct.xl_xact_parsed_commit, ptr %188, i32 0, i32 13
  %190 = getelementptr inbounds [200 x i8], ptr %189, i64 0, i64 0
  %191 = load ptr, ptr %7, align 8
  %192 = call i64 @strlcpy(ptr noundef %190, ptr noundef %191, i64 noundef 200)
  %193 = load ptr, ptr %7, align 8
  %194 = call i64 @strlen(ptr noundef %193) #8
  %195 = add i64 %194, 1
  %196 = load ptr, ptr %7, align 8
  %197 = getelementptr inbounds nuw i8, ptr %196, i64 %195
  store ptr %197, ptr %7, align 8
  br label %198

198:                                              ; preds = %187, %173
  call void @llvm.lifetime.end.p0(i64 8, ptr %14) #7
  br label %199

199:                                              ; preds = %198, %167
  %200 = load ptr, ptr %6, align 8
  %201 = getelementptr inbounds nuw %struct.xl_xact_parsed_commit, ptr %200, i32 0, i32 1
  %202 = load i32, ptr %201, align 8
  %203 = and i32 %202, 32
  %204 = icmp ne i32 %203, 0
  br i1 %204, label %205, label %217

205:                                              ; preds = %199
  call void @llvm.lifetime.start.p0(i64 16, ptr %15) #7
  %206 = load ptr, ptr %7, align 8
  call void @llvm.memcpy.p0.p0.i64(ptr align 8 %15, ptr align 1 %206, i64 16, i1 false)
  %207 = getelementptr inbounds nuw %struct.xl_xact_origin, ptr %15, i32 0, i32 0
  %208 = load i64, ptr %207, align 8
  %209 = load ptr, ptr %6, align 8
  %210 = getelementptr inbounds nuw %struct.xl_xact_parsed_commit, ptr %209, i32 0, i32 18
  store i64 %208, ptr %210, align 8
  %211 = getelementptr inbounds nuw %struct.xl_xact_origin, ptr %15, i32 0, i32 1
  %212 = load i64, ptr %211, align 8
  %213 = load ptr, ptr %6, align 8
  %214 = getelementptr inbounds nuw %struct.xl_xact_parsed_commit, ptr %213, i32 0, i32 19
  store i64 %212, ptr %214, align 8
  %215 = load ptr, ptr %7, align 8
  %216 = getelementptr inbounds nuw i8, ptr %215, i64 16
  store ptr %216, ptr %7, align 8
  call void @llvm.lifetime.end.p0(i64 16, ptr %15) #7
  br label %217

217:                                              ; preds = %205, %199
  call void @llvm.lifetime.end.p0(i64 8, ptr %7) #7
  ret void
}