; Function Attrs: nofree nounwind uwtable
define dso_local void @ParseCommitRecord(i8 noundef zeroext %0, ptr noundef %1, ptr noundef initializes((0, 328)) %2) local_unnamed_addr #0 {
  %4 = getelementptr inbounds nuw i8, ptr %2, i64 8
  tail call void @llvm.memset.p0.i64(ptr noundef nonnull align 8 dereferenceable(328) %2, i8 0, i64 328, i1 false)
  %5 = load i64, ptr %1, align 8
  store i64 %5, ptr %2, align 8
  %.not = icmp sgt i8 %0, -1
  br i1 %.not, label %.thread92, label %6

6:                                                ; preds = %3
  %7 = getelementptr inbounds nuw i8, ptr %1, i64 8
  %8 = load i32, ptr %7, align 4
  store i32 %8, ptr %4, align 8
  %9 = getelementptr inbounds nuw i8, ptr %1, i64 12
  %10 = and i32 %8, 1
  %.not67 = icmp eq i32 %10, 0
  br i1 %.not67, label %18, label %11

11:                                               ; preds = %6
  %12 = load i32, ptr %9, align 4
  %13 = getelementptr inbounds nuw i8, ptr %2, i64 12
  store i32 %12, ptr %13, align 4
  %14 = getelementptr inbounds nuw i8, ptr %1, i64 16
  %15 = load i32, ptr %14, align 4
  %16 = getelementptr inbounds nuw i8, ptr %2, i64 16
  store i32 %15, ptr %16, align 8
  %17 = getelementptr inbounds nuw i8, ptr %1, i64 20
  br label %18

18:                                               ; preds = %11, %6
  %.1 = phi ptr [ %17, %11 ], [ %9, %6 ]
  %19 = and i32 %8, 2
  %.not68 = icmp eq i32 %19, 0
  br i1 %.not68, label %28, label %20

20:                                               ; preds = %18
  %21 = load i32, ptr %.1, align 4
  %22 = getelementptr inbounds nuw i8, ptr %2, i64 20
  store i32 %21, ptr %22, align 4
  %23 = getelementptr inbounds nuw i8, ptr %.1, i64 4
  %24 = getelementptr inbounds nuw i8, ptr %2, i64 24
  store ptr %23, ptr %24, align 8
  %25 = sext i32 %21 to i64
  %26 = shl nsw i64 %25, 2
  %27 = getelementptr inbounds nuw i8, ptr %23, i64 %26
  br label %28

28:                                               ; preds = %20, %18
  %.2 = phi ptr [ %27, %20 ], [ %.1, %18 ]
  %29 = and i32 %8, 4
  %.not69 = icmp eq i32 %29, 0
  br i1 %.not69, label %39, label %30

30:                                               ; preds = %28
  %31 = load i32, ptr %.2, align 4
  %32 = getelementptr inbounds nuw i8, ptr %2, i64 32
  store i32 %31, ptr %32, align 8
  %33 = getelementptr inbounds nuw i8, ptr %.2, i64 4
  %34 = getelementptr inbounds nuw i8, ptr %2, i64 40
  store ptr %33, ptr %34, align 8
  %35 = load i32, ptr %.2, align 4
  %36 = sext i32 %35 to i64
  %37 = mul nsw i64 %36, 12
  %38 = getelementptr inbounds nuw i8, ptr %33, i64 %37
  br label %39

39:                                               ; preds = %30, %28
  %.3 = phi ptr [ %38, %30 ], [ %.2, %28 ]
  %40 = and i32 %8, 256
  %.not70 = icmp eq i32 %40, 0
  br i1 %.not70, label %50, label %41

41:                                               ; preds = %39
  %42 = load i32, ptr %.3, align 4
  %43 = getelementptr inbounds nuw i8, ptr %2, i64 48
  store i32 %42, ptr %43, align 8
  %44 = getelementptr inbounds nuw i8, ptr %.3, i64 4
  %45 = getelementptr inbounds nuw i8, ptr %2, i64 56
  store ptr %44, ptr %45, align 8
  %46 = load i32, ptr %.3, align 4
  %47 = sext i32 %46 to i64
  %48 = shl nsw i64 %47, 4
  %49 = getelementptr inbounds nuw i8, ptr %44, i64 %48
  br label %50

50:                                               ; preds = %41, %39
  %.4 = phi ptr [ %49, %41 ], [ %.3, %39 ]
  %51 = and i32 %8, 8
  %.not71 = icmp eq i32 %51, 0
  br i1 %.not71, label %61, label %52

52:                                               ; preds = %50
  %53 = load i32, ptr %.4, align 4
  %54 = getelementptr inbounds nuw i8, ptr %2, i64 64
  store i32 %53, ptr %54, align 8
  %55 = getelementptr inbounds nuw i8, ptr %.4, i64 4
  %56 = getelementptr inbounds nuw i8, ptr %2, i64 72
  store ptr %55, ptr %56, align 8
  %57 = load i32, ptr %.4, align 4
  %58 = sext i32 %57 to i64
  %59 = shl nsw i64 %58, 4
  %60 = getelementptr inbounds nuw i8, ptr %55, i64 %59
  br label %61

61:                                               ; preds = %52, %50
  %.5 = phi ptr [ %60, %52 ], [ %.4, %50 ]
  %62 = and i32 %8, 16
  %.not72 = icmp eq i32 %62, 0
  br i1 %.not72, label %74, label %63

63:                                               ; preds = %61
  %64 = load i32, ptr %.5, align 4
  %65 = getelementptr inbounds nuw i8, ptr %2, i64 80
  store i32 %64, ptr %65, align 8
  %66 = getelementptr inbounds nuw i8, ptr %.5, i64 4
  %67 = and i32 %8, 128
  %.not73 = icmp eq i32 %67, 0
  br i1 %.not73, label %74, label %68

68:                                               ; preds = %63
  %69 = getelementptr inbounds nuw i8, ptr %2, i64 84
  %70 = tail call i64 @strlcpy(ptr noundef nonnull dereferenceable(1) %69, ptr noundef nonnull dereferenceable(1) %66, i64 noundef 200) #10
  %71 = tail call i64 @strlen(ptr noundef nonnull dereferenceable(1) %66) #11
  %72 = getelementptr i8, ptr %66, i64 %71
  %73 = getelementptr i8, ptr %72, i64 1
  %.pre = load i32, ptr %4, align 8
  br label %74

74:                                               ; preds = %63, %68, %61
  %75 = phi i32 [ %8, %61 ], [ %.pre, %68 ], [ %8, %63 ]
  %.6 = phi ptr [ %.5, %61 ], [ %73, %68 ], [ %66, %63 ]
  %76 = and i32 %75, 32
  %.not74 = icmp eq i32 %76, 0
  br i1 %.not74, label %.thread92, label %77

77:                                               ; preds = %74
  %.sroa.0.0.copyload = load i64, ptr %.6, align 1
  %.sroa.4.0..sroa_idx = getelementptr inbounds nuw i8, ptr %.6, i64 8
  %.sroa.4.0.copyload = load i64, ptr %.sroa.4.0..sroa_idx, align 1
  %78 = getelementptr inbounds nuw i8, ptr %2, i64 312
  store i64 %.sroa.0.0.copyload, ptr %78, align 8
  %79 = getelementptr inbounds nuw i8, ptr %2, i64 320
  store i64 %.sroa.4.0.copyload, ptr %79, align 8
  br label %.thread92

.thread92:                                        ; preds = %3, %77, %74
  ret void
}